target datalayout = "e-m:e-p270:32:32-p271:32:32-p272:64:64-i64:64-i128:128-f80:128-n8:16:32:64-S128"
target triple = "x86_64-pc-linux-gnu"

%struct.EDLineSegment = type <{ double, double, i32, [4 x i8], double, double, double, double, i32, i32, i32, [4 x i8] }>

; Function Attrs: mustprogress nounwind uwtable
define hidden noundef double @_ZN2cv8ximgproc15EdgeDrawingImpl33ComputeMinDistanceBetweenTwoLinesEP13EDLineSegmentS3_Pi(ptr noundef %0, ptr noundef %1, ptr noundef %2) #8 align 2 {
  %4 = alloca ptr, align 8
  %5 = alloca ptr, align 8
  %6 = alloca ptr, align 8
  %7 = alloca double, align 8
  %8 = alloca double, align 8
  %9 = alloca double, align 8
  %10 = alloca double, align 8
  %11 = alloca i32, align 4
  store ptr %0, ptr %4, align 8, !tbaa !347
  store ptr %1, ptr %5, align 8, !tbaa !347
  store ptr %2, ptr %6, align 8, !tbaa !131
  call void @llvm.lifetime.start.p0(i64 8, ptr %7) #3
  %12 = load ptr, ptr %4, align 8, !tbaa !347
  %13 = getelementptr inbounds nuw %struct.EDLineSegment, ptr %12, i32 0, i32 4
  %14 = load double, ptr %13, align 8, !tbaa !321
  %15 = load ptr, ptr %5, align 8, !tbaa !347
  %16 = getelementptr inbounds nuw %struct.EDLineSegment, ptr %15, i32 0, i32 4
  %17 = load double, ptr %16, align 8, !tbaa !321
  %18 = fsub double %14, %17
  store double %18, ptr %7, align 8, !tbaa !10
  call void @llvm.lifetime.start.p0(i64 8, ptr %8) #3
  %19 = load ptr, ptr %4, align 8, !tbaa !347
  %20 = getelementptr inbounds nuw %struct.EDLineSegment, ptr %19, i32 0, i32 5
  %21 = load double, ptr %20, align 8, !tbaa !323
  %22 = load ptr, ptr %5, align 8, !tbaa !347
  %23 = getelementptr inbounds nuw %struct.EDLineSegment, ptr %22, i32 0, i32 5
  %24 = load double, ptr %23, align 8, !tbaa !323
  %25 = fsub double %21, %24
  store double %25, ptr %8, align 8, !tbaa !10
  call void @llvm.lifetime.start.p0(i64 8, ptr %9) #3
  %26 = load double, ptr %7, align 8, !tbaa !10
  %27 = load double, ptr %7, align 8, !tbaa !10
  %28 = load double, ptr %8, align 8, !tbaa !10
  %29 = load double, ptr %8, align 8, !tbaa !10
  %30 = fmul double %28, %29
  %31 = call double @llvm.fmuladd.f64(double %26, double %27, double %30)
  %32 = call double @sqrt(double noundef %31) #3, !tbaa !8
  store double %32, ptr %9, align 8, !tbaa !10
  call void @llvm.lifetime.start.p0(i64 8, ptr %10) #3
  %33 = load double, ptr %9, align 8, !tbaa !10
  store double %33, ptr %10, align 8, !tbaa !10
  call void @llvm.lifetime.start.p0(i64 4, ptr %11) #3
  store i32 0, ptr %11, align 4, !tbaa !8
  %34 = load ptr, ptr %4, align 8, !tbaa !347
  %35 = getelementptr inbounds nuw %struct.EDLineSegment, ptr %34, i32 0, i32 4
  %36 = load double, ptr %35, align 8, !tbaa !321
  %37 = load ptr, ptr %5, align 8, !tbaa !347
  %38 = getelementptr inbounds nuw %struct.EDLineSegment, ptr %37, i32 0, i32 6
  %39 = load double, ptr %38, align 8, !tbaa !324
  %40 = fsub double %36, %39
  store double %40, ptr %7, align 8, !tbaa !10
  %41 = load ptr, ptr %4, align 8, !tbaa !347
  %42 = getelementptr inbounds nuw %struct.EDLineSegment, ptr %41, i32 0, i32 5
  %43 = load double, ptr %42, align 8, !tbaa !323
  %44 = load ptr, ptr %5, align 8, !tbaa !347
  %45 = getelementptr inbounds nuw %struct.EDLineSegment, ptr %44, i32 0, i32 7
  %46 = load double, ptr %45, align 8, !tbaa !325
  %47 = fsub double %43, %46
  store double %47, ptr %8, align 8, !tbaa !10
  %48 = load double, ptr %7, align 8, !tbaa !10
  %49 = load double, ptr %7, align 8, !tbaa !10
  %50 = load double, ptr %8, align 8, !tbaa !10
  %51 = load double, ptr %8, align 8, !tbaa !10
  %52 = fmul double %50, %51
  %53 = call double @llvm.fmuladd.f64(double %48, double %49, double %52)
  %54 = call double @sqrt(double noundef %53) #3, !tbaa !8
  store double %54, ptr %9, align 8, !tbaa !10
  %55 = load double, ptr %9, align 8, !tbaa !10
  %56 = load double, ptr %10, align 8, !tbaa !10
  %57 = fcmp olt double %55, %56
  br i1 %57, label %58, label %60

58:                                               ; preds = %3
  %59 = load double, ptr %9, align 8, !tbaa !10
  store double %59, ptr %10, align 8, !tbaa !10
  store i32 1, ptr %11, align 4, !tbaa !8
  br label %60

60:                                               ; preds = %58, %3
  %61 = load ptr, ptr %4, align 8, !tbaa !347
  %62 = getelementptr inbounds nuw %struct.EDLineSegment, ptr %61, i32 0, i32 6
  %63 = load double, ptr %62, align 8, !tbaa !324
  %64 = load ptr, ptr %5, align 8, !tbaa !347
  %65 = getelementptr inbounds nuw %struct.EDLineSegment, ptr %64, i32 0, i32 4
  %66 = load double, ptr %65, align 8, !tbaa !321
  %67 = fsub double %63, %66
  store double %67, ptr %7, align 8, !tbaa !10
  %68 = load ptr, ptr %4, align 8, !tbaa !347
  %69 = getelementptr inbounds nuw %struct.EDLineSegment, ptr %68, i32 0, i32 7
  %70 = load double, ptr %69, align 8, !tbaa !325
  %71 = load ptr, ptr %5, align 8, !tbaa !347
  %72 = getelementptr inbounds nuw %struct.EDLineSegment, ptr %71, i32 0, i32 5
  %73 = load double, ptr %72, align 8, !tbaa !323
  %74 = fsub double %70, %73
  store double %74, ptr %8, align 8, !tbaa !10
  %75 = load double, ptr %7, align 8, !tbaa !10
  %76 = load double, ptr %7, align 8, !tbaa !10
  %77 = load double, ptr %8, align 8, !tbaa !10
  %78 = load double, ptr %8, align 8, !tbaa !10
  %79 = fmul double %77, %78
  %80 = call double @llvm.fmuladd.f64(double %75, double %76, double %79)
  %81 = call double @sqrt(double noundef %80) #3, !tbaa !8
  store double %81, ptr %9, align 8, !tbaa !10
  %82 = load double, ptr %9, align 8, !tbaa !10
  %83 = load double, ptr %10, align 8, !tbaa !10
  %84 = fcmp olt double %82, %83
  br i1 %84, label %85, label %87

85:                                               ; preds = %60
  %86 = load double, ptr %9, align 8, !tbaa !10
  store double %86, ptr %10, align 8, !tbaa !10
  store i32 2, ptr %11, align 4, !tbaa !8
  br label %87

87:                                               ; preds = %85, %60
  %88 = load ptr, ptr %4, align 8, !tbaa !347
  %89 = getelementptr inbounds nuw %struct.EDLineSegment, ptr %88, i32 0, i32 6
  %90 = load double, ptr %89, align 8, !tbaa !324
  %91 = load ptr, ptr %5, align 8, !tbaa !347
  %92 = getelementptr inbounds nuw %struct.EDLineSegment, ptr %91, i32 0, i32 6
  %93 = load double, ptr %92, align 8, !tbaa !324
  %94 = fsub double %90, %93
  store double %94, ptr %7, align 8, !tbaa !10
  %95 = load ptr, ptr %4, align 8, !tbaa !347
  %96 = getelementptr inbounds nuw %struct.EDLineSegment, ptr %95, i32 0, i32 7
  %97 = load double, ptr %96, align 8, !tbaa !325
  %98 = load ptr, ptr %5, align 8, !tbaa !347
  %99 = getelementptr inbounds nuw %struct.EDLineSegment, ptr %98, i32 0, i32 7
  %100 = load double, ptr %99, align 8, !tbaa !325
  %101 = fsub double %97, %100
  store double %101, ptr %8, align 8, !tbaa !10
  %102 = load double, ptr %7, align 8, !tbaa !10
  %103 = load double, ptr %7, align 8, !tbaa !10
  %104 = load double, ptr %8, align 8, !tbaa !10
  %105 = load double, ptr %8, align 8, !tbaa !10
  %106 = fmul double %104, %105
  %107 = call double @llvm.fmuladd.f64(double %102, double %103, double %106)
  %108 = call double @sqrt(double noundef %107) #3, !tbaa !8
  store double %108, ptr %9, align 8, !tbaa !10
  %109 = load double, ptr %9, align 8, !tbaa !10
  %110 = load double, ptr %10, align 8, !tbaa !10
  %111 = fcmp olt double %109, %110
  br i1 %111, label %112, label %114

112:                                              ; preds = %87
  %113 = load double, ptr %9, align 8, !tbaa !10
  store double %113, ptr %10, align 8, !tbaa !10
  store i32 3, ptr %11, align 4, !tbaa !8
  br label %114

114:                                              ; preds = %112, %87
  %115 = load ptr, ptr %6, align 8, !tbaa !131
  %116 = icmp ne ptr %115, null
  br i1 %116, label %117, label %120

117:                                              ; preds = %114
  %118 = load i32, ptr %11, align 4, !tbaa !8
  %119 = load ptr, ptr %6, align 8, !tbaa !131
  store i32 %118, ptr %119, align 4, !tbaa !8
  br label %120

120:                                              ; preds = %117, %114
  %121 = load double, ptr %10, align 8, !tbaa !10
  call void @llvm.lifetime.end.p0(i64 4, ptr %11) #3
  call void @llvm.lifetime.end.p0(i64 8, ptr %10) #3
  call void @llvm.lifetime.end.p0(i64 8, ptr %9) #3
  call void @llvm.lifetime.end.p0(i64 8, ptr %8) #3
  call void @llvm.lifetime.end.p0(i64 8, ptr %7) #3
  ret double %121
}