; Function Attrs: mustprogress nofree norecurse nosync nounwind willreturn memory(argmem: readwrite) uwtable
define hidden noundef double @_ZN2cv8ximgproc15EdgeDrawingImpl33ComputeMinDistanceBetweenTwoLinesEP13EDLineSegmentS3_Pi(ptr noundef readonly captures(none) %0, ptr noundef readonly captures(none) %1, ptr noundef writeonly %2) local_unnamed_addr #16 align 2 {
  %4 = getelementptr inbounds nuw i8, ptr %0, i64 24
  %5 = load double, ptr %4, align 8, !tbaa !308
  %6 = getelementptr inbounds nuw i8, ptr %1, i64 24
  %7 = load double, ptr %6, align 8, !tbaa !308
  %8 = fsub double %5, %7
  %9 = getelementptr inbounds nuw i8, ptr %0, i64 32
  %10 = load double, ptr %9, align 8, !tbaa !310
  %11 = getelementptr inbounds nuw i8, ptr %1, i64 32
  %12 = load double, ptr %11, align 8, !tbaa !310
  %13 = fsub double %10, %12
  %14 = fmul double %13, %13
  %15 = tail call double @llvm.fmuladd.f64(double %8, double %8, double %14)
  %sqrt55 = tail call double @llvm.sqrt.f64(double %15)
  %16 = getelementptr inbounds nuw i8, ptr %1, i64 40
  %17 = load double, ptr %16, align 8, !tbaa !311
  %18 = fsub double %5, %17
  %19 = getelementptr inbounds nuw i8, ptr %1, i64 48
  %20 = load double, ptr %19, align 8, !tbaa !312
  %21 = fsub double %10, %20
  %22 = fmul double %21, %21
  %23 = tail call double @llvm.fmuladd.f64(double %18, double %18, double %22)
  %sqrt54 = tail call double @llvm.sqrt.f64(double %23)
  %24 = fcmp olt double %sqrt54, %sqrt55
  %.045 = select i1 %24, double %sqrt54, double %sqrt55
  %25 = getelementptr inbounds nuw i8, ptr %0, i64 40
  %26 = load double, ptr %25, align 8, !tbaa !311
  %27 = fsub double %26, %7
  %28 = getelementptr inbounds nuw i8, ptr %0, i64 48
  %29 = load double, ptr %28, align 8, !tbaa !312
  %30 = fsub double %29, %12
  %31 = fmul double %30, %30
  %32 = tail call double @llvm.fmuladd.f64(double %27, double %27, double %31)
  %sqrt53 = tail call double @llvm.sqrt.f64(double %32)
  %33 = fcmp olt double %sqrt53, %.045
  %.146 = select i1 %33, double %sqrt53, double %.045
  %34 = fsub double %26, %17
  %35 = fsub double %29, %20
  %36 = fmul double %35, %35
  %37 = tail call double @llvm.fmuladd.f64(double %34, double %34, double %36)
  %sqrt = tail call double @llvm.sqrt.f64(double %37)
  %38 = fcmp olt double %sqrt, %.146
  %.not = icmp eq ptr %2, null
  br i1 %.not, label %40, label %39

39:                                               ; preds = %3
  %.0 = zext i1 %24 to i32
  %.1 = select i1 %33, i32 2, i32 %.0
  %.2 = select i1 %38, i32 3, i32 %.1
  store i32 %.2, ptr %2, align 4, !tbaa !15
  br label %40

40:                                               ; preds = %39, %3
  %.247 = select i1 %38, double %sqrt, double %.146
  ret double %.247
}